; Function Attrs: mustprogress nounwind uwtable
define internal void @_ZNK12_GLOBAL__N_115AlignedArgument9writeDumpERN4llvm11raw_ostreamE(ptr noundef nonnull align 8 dereferenceable(90) %0, ptr noundef nonnull align 8 dereferenceable(48) %1) unnamed_addr #0 align 2 {
  %3 = getelementptr inbounds nuw i8, ptr %1, i64 24
  %4 = load ptr, ptr %3, align 8
  %5 = getelementptr inbounds nuw i8, ptr %1, i64 32
  %6 = load ptr, ptr %5, align 8
  %7 = ptrtoint ptr %4 to i64
  %8 = ptrtoint ptr %6 to i64
  %9 = sub i64 %7, %8
  %10 = icmp ult i64 %9, 15
  br i1 %10, label %11, label %13

11:                                               ; preds = %2
  %12 = tail call noundef nonnull align 8 dereferenceable(48) ptr @_ZN4llvm11raw_ostream5writeEPKcm(ptr noundef nonnull align 8 dereferenceable(48) %1, ptr noundef nonnull @.str.648, i64 noundef 15) #22
  br label %_ZN4llvm11raw_ostreamlsEPKc.exit

13:                                               ; preds = %2
  tail call void @llvm.memcpy.p0.p0.i64(ptr noundef nonnull align 1 dereferenceable(15) %6, ptr noundef nonnull align 1 dereferenceable(15) @.str.648, i64 15, i1 false)
  %14 = load ptr, ptr %5, align 8
  %15 = getelementptr inbounds i8, ptr %14, i64 15
  store ptr %15, ptr %5, align 8
  br label %_ZN4llvm11raw_ostreamlsEPKc.exit

_ZN4llvm11raw_ostreamlsEPKc.exit:                 ; preds = %11, %13
  %.0.i.i = phi ptr [ %12, %11 ], [ %1, %13 ]
  %16 = getelementptr inbounds nuw i8, ptr %0, i64 40
  %17 = tail call noundef ptr @_ZNKSt7__cxx1112basic_stringIcSt11char_traitsIcESaIcEE4dataEv(ptr noundef nonnull align 8 dereferenceable(32) %16) #22
  %18 = tail call noundef i64 @_ZNKSt7__cxx1112basic_stringIcSt11char_traitsIcESaIcEE6lengthEv(ptr noundef nonnull align 8 dereferenceable(32) %16) #22
  %19 = getelementptr inbounds nuw i8, ptr %.0.i.i, i64 24
  %20 = load ptr, ptr %19, align 8
  %21 = getelementptr inbounds nuw i8, ptr %.0.i.i, i64 32
  %22 = load ptr, ptr %21, align 8
  %23 = ptrtoint ptr %20 to i64
  %24 = ptrtoint ptr %22 to i64
  %25 = sub i64 %23, %24
  %26 = icmp ugt i64 %18, %25
  br i1 %26, label %27, label %29

27:                                               ; preds = %_ZN4llvm11raw_ostreamlsEPKc.exit
  %28 = tail call noundef nonnull align 8 dereferenceable(48) ptr @_ZN4llvm11raw_ostream5writeEPKcm(ptr noundef nonnull align 8 dereferenceable(48) %.0.i.i, ptr noundef %17, i64 noundef %18) #22
  %.phi.trans.insert = getelementptr inbounds nuw i8, ptr %28, i64 32
  %.pre = load ptr, ptr %.phi.trans.insert, align 8
  br label %_ZN4llvm11raw_ostreamlsENS_9StringRefE.exit

29:                                               ; preds = %_ZN4llvm11raw_ostreamlsEPKc.exit
  %.not.i = icmp eq i64 %18, 0
  br i1 %.not.i, label %_ZN4llvm11raw_ostreamlsENS_9StringRefE.exit, label %30

30:                                               ; preds = %29
  tail call void @llvm.memcpy.p0.p0.i64(ptr align 1 %22, ptr align 1 %17, i64 %18, i1 false)
  %31 = load ptr, ptr %21, align 8
  %32 = getelementptr inbounds i8, ptr %31, i64 %18
  store ptr %32, ptr %21, align 8
  br label %_ZN4llvm11raw_ostreamlsENS_9StringRefE.exit

_ZN4llvm11raw_ostreamlsENS_9StringRefE.exit:      ; preds = %27, %29, %30
  %33 = phi ptr [ %.pre, %27 ], [ %32, %30 ], [ %22, %29 ]
  %.0.i = phi ptr [ %28, %27 ], [ %.0.i.i, %30 ], [ %.0.i.i, %29 ]
  %34 = getelementptr inbounds nuw i8, ptr %.0.i, i64 24
  %35 = load ptr, ptr %34, align 8
  %36 = ptrtoint ptr %35 to i64
  %37 = ptrtoint ptr %33 to i64
  %38 = sub i64 %36, %37
  %39 = icmp ult i64 %38, 8
  br i1 %39, label %40, label %42

40:                                               ; preds = %_ZN4llvm11raw_ostreamlsENS_9StringRefE.exit
  %41 = tail call noundef nonnull align 8 dereferenceable(48) ptr @_ZN4llvm11raw_ostream5writeEPKcm(ptr noundef nonnull align 8 dereferenceable(48) %.0.i, ptr noundef nonnull @.str.637, i64 noundef 8) #22
  br label %_ZN4llvm11raw_ostreamlsEPKc.exit7

42:                                               ; preds = %_ZN4llvm11raw_ostreamlsENS_9StringRefE.exit
  %43 = getelementptr inbounds nuw i8, ptr %.0.i, i64 32
  store i64 732161668119820357, ptr %33, align 1
  %44 = load ptr, ptr %43, align 8
  %45 = getelementptr inbounds i8, ptr %44, i64 8
  store ptr %45, ptr %43, align 8
  br label %_ZN4llvm11raw_ostreamlsEPKc.exit7

_ZN4llvm11raw_ostreamlsEPKc.exit7:                ; preds = %40, %42
  %46 = load ptr, ptr %3, align 8
  %47 = load ptr, ptr %5, align 8
  %48 = ptrtoint ptr %46 to i64
  %49 = ptrtoint ptr %47 to i64
  %50 = sub i64 %48, %49
  %51 = icmp ult i64 %50, 22
  br i1 %51, label %52, label %54

52:                                               ; preds = %_ZN4llvm11raw_ostreamlsEPKc.exit7
  %53 = tail call noundef nonnull align 8 dereferenceable(48) ptr @_ZN4llvm11raw_ostream5writeEPKcm(ptr noundef nonnull align 8 dereferenceable(48) %1, ptr noundef nonnull @.str.649, i64 noundef 22) #22
  br label %_ZN4llvm11raw_ostreamlsEPKc.exit10

54:                                               ; preds = %_ZN4llvm11raw_ostreamlsEPKc.exit7
  tail call void @llvm.memcpy.p0.p0.i64(ptr noundef nonnull align 1 dereferenceable(22) %47, ptr noundef nonnull align 1 dereferenceable(22) @.str.649, i64 22, i1 false)
  %55 = load ptr, ptr %5, align 8
  %56 = getelementptr inbounds i8, ptr %55, i64 22
  store ptr %56, ptr %5, align 8
  br label %_ZN4llvm11raw_ostreamlsEPKc.exit10

_ZN4llvm11raw_ostreamlsEPKc.exit10:               ; preds = %52, %54
  %.0.i.i9 = phi ptr [ %53, %52 ], [ %1, %54 ]
  %57 = tail call noundef ptr @_ZNKSt7__cxx1112basic_stringIcSt11char_traitsIcESaIcEE4dataEv(ptr noundef nonnull align 8 dereferenceable(32) %16) #22
  %58 = tail call noundef i64 @_ZNKSt7__cxx1112basic_stringIcSt11char_traitsIcESaIcEE6lengthEv(ptr noundef nonnull align 8 dereferenceable(32) %16) #22
  %59 = getelementptr inbounds nuw i8, ptr %.0.i.i9, i64 24
  %60 = load ptr, ptr %59, align 8
  %61 = getelementptr inbounds nuw i8, ptr %.0.i.i9, i64 32
  %62 = load ptr, ptr %61, align 8
  %63 = ptrtoint ptr %60 to i64
  %64 = ptrtoint ptr %62 to i64
  %65 = sub i64 %63, %64
  %66 = icmp ugt i64 %58, %65
  br i1 %66, label %67, label %69

67:                                               ; preds = %_ZN4llvm11raw_ostreamlsEPKc.exit10
  %68 = tail call noundef nonnull align 8 dereferenceable(48) ptr @_ZN4llvm11raw_ostream5writeEPKcm(ptr noundef nonnull align 8 dereferenceable(48) %.0.i.i9, ptr noundef %57, i64 noundef %58) #22
  %.phi.trans.insert19 = getelementptr inbounds nuw i8, ptr %68, i64 32
  %.pre20 = load ptr, ptr %.phi.trans.insert19, align 8
  br label %_ZN4llvm11raw_ostreamlsENS_9StringRefE.exit15

69:                                               ; preds = %_ZN4llvm11raw_ostreamlsEPKc.exit10
  %.not.i13 = icmp eq i64 %58, 0
  br i1 %.not.i13, label %_ZN4llvm11raw_ostreamlsENS_9StringRefE.exit15, label %70

70:                                               ; preds = %69
  tail call void @llvm.memcpy.p0.p0.i64(ptr align 1 %62, ptr align 1 %57, i64 %58, i1 false)
  %71 = load ptr, ptr %61, align 8
  %72 = getelementptr inbounds i8, ptr %71, i64 %58
  store ptr %72, ptr %61, align 8
  br label %_ZN4llvm11raw_ostreamlsENS_9StringRefE.exit15

_ZN4llvm11raw_ostreamlsENS_9StringRefE.exit15:    ; preds = %67, %69, %70
  %73 = phi ptr [ %.pre20, %67 ], [ %72, %70 ], [ %62, %69 ]
  %.0.i14 = phi ptr [ %68, %67 ], [ %.0.i.i9, %70 ], [ %.0.i.i9, %69 ]
  %74 = getelementptr inbounds nuw i8, ptr %.0.i14, i64 24
  %75 = load ptr, ptr %74, align 8
  %76 = ptrtoint ptr %75 to i64
  %77 = ptrtoint ptr %73 to i64
  %78 = sub i64 %76, %77
  %79 = icmp ult i64 %78, 20
  br i1 %79, label %80, label %82

80:                                               ; preds = %_ZN4llvm11raw_ostreamlsENS_9StringRefE.exit15
  %81 = tail call noundef nonnull align 8 dereferenceable(48) ptr @_ZN4llvm11raw_ostream5writeEPKcm(ptr noundef nonnull align 8 dereferenceable(48) %.0.i14, ptr noundef nonnull @.str.650, i64 noundef 20) #22
  br label %_ZN4llvm11raw_ostreamlsEPKc.exit18

82:                                               ; preds = %_ZN4llvm11raw_ostreamlsENS_9StringRefE.exit15
  %83 = getelementptr inbounds nuw i8, ptr %.0.i14, i64 32
  tail call void @llvm.memcpy.p0.p0.i64(ptr noundef nonnull align 1 dereferenceable(20) %73, ptr noundef nonnull align 1 dereferenceable(20) @.str.650, i64 20, i1 false)
  %84 = load ptr, ptr %83, align 8
  %85 = getelementptr inbounds i8, ptr %84, i64 20
  store ptr %85, ptr %83, align 8
  br label %_ZN4llvm11raw_ostreamlsEPKc.exit18

_ZN4llvm11raw_ostreamlsEPKc.exit18:               ; preds = %80, %82
  ret void
}